; Function Attrs: mustprogress uwtable
define hidden void @_ZN7bv_utilC2ER11ast_manager(ptr noundef nonnull writeonly align 8 captures(none) dereferenceable(24) initializes((0, 4), (8, 24)) %0, ptr noundef nonnull align 8 dereferenceable(976) %1) unnamed_addr #3 align 2 {
  %3 = alloca %class.symbol, align 8
  %4 = alloca %class.symbol, align 8
  call void @llvm.lifetime.start.p0(i64 8, ptr nonnull %4) #24
  call void @_ZN6symbolC1EPKc(ptr noundef nonnull align 8 dereferenceable(8) %4, ptr noundef nonnull @.str)
  %5 = getelementptr inbounds nuw i8, ptr %1, i64 560
  %6 = call noundef i32 @_ZN14family_manager12mk_family_idERK6symbol(ptr noundef nonnull align 8 dereferenceable(56) %5, ptr noundef nonnull align 8 dereferenceable(8) %4)
  store i32 %6, ptr %0, align 8, !tbaa !179
  call void @llvm.lifetime.end.p0(i64 8, ptr nonnull %4) #24
  %7 = getelementptr inbounds nuw i8, ptr %0, i64 8
  store ptr %1, ptr %7, align 8, !tbaa !181
  call void @llvm.lifetime.start.p0(i64 8, ptr nonnull %3) #24
  call void @_ZN6symbolC1EPKc(ptr noundef nonnull align 8 dereferenceable(8) %3, ptr noundef nonnull @.str)
  %8 = call noundef i32 @_ZN14family_manager12mk_family_idERK6symbol(ptr noundef nonnull align 8 dereferenceable(56) %5, ptr noundef nonnull align 8 dereferenceable(8) %3)
  call void @llvm.lifetime.end.p0(i64 8, ptr nonnull %3) #24
  %9 = call noundef ptr @_ZNK11ast_manager10get_pluginEi(ptr noundef nonnull align 8 dereferenceable(976) %1, i32 noundef %8)
  %10 = getelementptr inbounds nuw i8, ptr %0, i64 16
  store ptr %9, ptr %10, align 8, !tbaa !182
  ret void
}